target datalayout = "e-m:e-p270:32:32-p271:32:32-p272:64:64-i64:64-i128:128-f80:128-n8:16:32:64-S128"
target triple = "x86_64-pc-linux-gnu"

%struct.AVIOContext = type { ptr, ptr, i32, ptr, ptr, ptr, ptr, ptr, ptr, i64, i32, i32, i32, i32, i32, i64, ptr, ptr, ptr, ptr, i32, i32, ptr, ptr, ptr, i32, ptr, i64, i64 }

; Function Attrs: nounwind uwtable
define i32 @avio_r8(ptr noundef %0) #0 {
  %2 = alloca i32, align 4
  %3 = alloca ptr, align 8
  store ptr %0, ptr %3, align 8, !tbaa !14
  %4 = load ptr, ptr %3, align 8, !tbaa !14
  %5 = getelementptr inbounds nuw %struct.AVIOContext, ptr %4, i32 0, i32 3
  %6 = load ptr, ptr %5, align 8, !tbaa !23
  %7 = load ptr, ptr %3, align 8, !tbaa !14
  %8 = getelementptr inbounds nuw %struct.AVIOContext, ptr %7, i32 0, i32 4
  %9 = load ptr, ptr %8, align 8, !tbaa !38
  %10 = icmp uge ptr %6, %9
  br i1 %10, label %11, label %13

11:                                               ; preds = %1
  %12 = load ptr, ptr %3, align 8, !tbaa !14
  call void @fill_buffer(ptr noundef %12)
  br label %13

13:                                               ; preds = %11, %1
  %14 = load ptr, ptr %3, align 8, !tbaa !14
  %15 = getelementptr inbounds nuw %struct.AVIOContext, ptr %14, i32 0, i32 3
  %16 = load ptr, ptr %15, align 8, !tbaa !23
  %17 = load ptr, ptr %3, align 8, !tbaa !14
  %18 = getelementptr inbounds nuw %struct.AVIOContext, ptr %17, i32 0, i32 4
  %19 = load ptr, ptr %18, align 8, !tbaa !38
  %20 = icmp ult ptr %16, %19
  br i1 %20, label %21, label %28

21:                                               ; preds = %13
  %22 = load ptr, ptr %3, align 8, !tbaa !14
  %23 = getelementptr inbounds nuw %struct.AVIOContext, ptr %22, i32 0, i32 3
  %24 = load ptr, ptr %23, align 8, !tbaa !23
  %25 = getelementptr inbounds nuw i8, ptr %24, i32 1
  store ptr %25, ptr %23, align 8, !tbaa !23
  %26 = load i8, ptr %24, align 1, !tbaa !50
  %27 = zext i8 %26 to i32
  store i32 %27, ptr %2, align 4
  br label %29

28:                                               ; preds = %13
  store i32 0, ptr %2, align 4
  br label %29

29:                                               ; preds = %28, %21
  %30 = load i32, ptr %2, align 4
  ret i32 %30
}

; Function Attrs: nounwind uwtable
define i32 @avio_rl16(ptr noundef %0) #0 {
  %2 = alloca ptr, align 8
  %3 = alloca i32, align 4
  store ptr %0, ptr %2, align 8, !tbaa !14
  call void @llvm.lifetime.start.p0(i64 4, ptr %3) #12
  %4 = load ptr, ptr %2, align 8, !tbaa !14
  %5 = call i32 @avio_r8(ptr noundef %4)
  store i32 %5, ptr %3, align 4, !tbaa !11
  %6 = load ptr, ptr %2, align 8, !tbaa !14
  %7 = call i32 @avio_r8(ptr noundef %6)
  %8 = shl i32 %7, 8
  %9 = load i32, ptr %3, align 4, !tbaa !11
  %10 = or i32 %9, %8
  store i32 %10, ptr %3, align 4, !tbaa !11
  %11 = load i32, ptr %3, align 4, !tbaa !11
  call void @llvm.lifetime.end.p0(i64 4, ptr %3) #12
  ret i32 %11
}

; Function Attrs: nounwind uwtable
define i32 @avio_rl32(ptr noundef %0) #0 {
  %2 = alloca ptr, align 8
  %3 = alloca i32, align 4
  store ptr %0, ptr %2, align 8, !tbaa !14
  call void @llvm.lifetime.start.p0(i64 4, ptr %3) #12
  %4 = load ptr, ptr %2, align 8, !tbaa !14
  %5 = call i32 @avio_rl16(ptr noundef %4)
  store i32 %5, ptr %3, align 4, !tbaa !11
  %6 = load ptr, ptr %2, align 8, !tbaa !14
  %7 = call i32 @avio_rl16(ptr noundef %6)
  %8 = shl i32 %7, 16
  %9 = load i32, ptr %3, align 4, !tbaa !11
  %10 = or i32 %9, %8
  store i32 %10, ptr %3, align 4, !tbaa !11
  %11 = load i32, ptr %3, align 4, !tbaa !11
  call void @llvm.lifetime.end.p0(i64 4, ptr %3) #12
  ret i32 %11
}